; ModuleID = '55/886.c'
source_filename = "55/886.c"
target datalayout = "e-m:e-p270:32:32-p271:32:32-p272:64:64-i64:64-f80:128-n8:16:32:64-S128"
target triple = "x86_64-pc-linux-gnu"

@.str = private unnamed_addr constant [9 x i8] c"%d %s %d\00", align 1
@.str.1 = private unnamed_addr constant [2 x i8] c"0\00", align 1
@.str.2 = private unnamed_addr constant [3 x i8] c"%s\00", align 1

; Function Attrs: noinline nounwind uwtable
define dso_local i32 @main() #0 {
  %1 = alloca i32, align 4
  %2 = alloca i32, align 4
  %3 = alloca i32, align 4
  %4 = alloca i32, align 4
  %5 = alloca i32, align 4
  %6 = alloca i32, align 4
  %7 = alloca i32, align 4
  %8 = alloca i32, align 4
  %9 = alloca [40 x i8], align 16
  %10 = alloca [40 x i8], align 16
  %11 = alloca [40 x i8], align 16
  %12 = alloca i32, align 4
  %13 = alloca i32, align 4
  store i32 0, i32* %1, align 4
  store i32 0, i32* %8, align 4
  %14 = getelementptr inbounds [40 x i8], [40 x i8]* %9, i64 0, i64 0
  %15 = call i32 (i8*, ...) @__isoc99_scanf(i8* getelementptr inbounds ([9 x i8], [9 x i8]* @.str, i64 0, i64 0), i32* %2, i8* %14, i32* %3)
  %16 = getelementptr inbounds [40 x i8], [40 x i8]* %9, i64 0, i64 0
  %17 = call i64 @strlen(i8* %16) #3
  %18 = trunc i64 %17 to i32
  store i32 %18, i32* %4, align 4
  store i32 0, i32* %12, align 4
  br label %19

19:                                               ; preds = %97, %0
  %20 = load i32, i32* %12, align 4
  %21 = load i32, i32* %4, align 4
  %22 = icmp slt i32 %20, %21
  br i1 %22, label %23, label %100

23:                                               ; preds = %19
  %24 = load i32, i32* %12, align 4
  %25 = sext i32 %24 to i64
  %26 = getelementptr inbounds [40 x i8], [40 x i8]* %9, i64 0, i64 %25
  %27 = load i8, i8* %26, align 1
  %28 = sext i8 %27 to i32
  %29 = icmp sge i32 %28, 97
  br i1 %29, label %30, label %49

30:                                               ; preds = %23
  %31 = load i32, i32* %12, align 4
  %32 = sext i32 %31 to i64
  %33 = getelementptr inbounds [40 x i8], [40 x i8]* %9, i64 0, i64 %32
  %34 = load i8, i8* %33, align 1
  %35 = sext i8 %34 to i32
  %36 = icmp sle i32 %35, 122
  br i1 %36, label %37, label %49

37:                                               ; preds = %30
  %38 = load i32, i32* %12, align 4
  %39 = sext i32 %38 to i64
  %40 = getelementptr inbounds [40 x i8], [40 x i8]* %9, i64 0, i64 %39
  %41 = load i8, i8* %40, align 1
  %42 = sext i8 %41 to i32
  %43 = sub nsw i32 %42, 97
  %44 = add nsw i32 %43, 10
  %45 = trunc i32 %44 to i8
  %46 = load i32, i32* %12, align 4
  %47 = sext i32 %46 to i64
  %48 = getelementptr inbounds [40 x i8], [40 x i8]* %9, i64 0, i64 %47
  store i8 %45, i8* %48, align 1
  br label %87

49:                                               ; preds = %30, %23
  %50 = load i32, i32* %12, align 4
  %51 = sext i32 %50 to i64
  %52 = getelementptr inbounds [40 x i8], [40 x i8]* %9, i64 0, i64 %51
  %53 = load i8, i8* %52, align 1
  %54 = sext i8 %53 to i32
  %55 = icmp sge i32 %54, 65
  br i1 %55, label %56, label %75

56:                                               ; preds = %49
  %57 = load i32, i32* %12, align 4
  %58 = sext i32 %57 to i64
  %59 = getelementptr inbounds [40 x i8], [40 x i8]* %9, i64 0, i64 %58
  %60 = load i8, i8* %59, align 1
  %61 = sext i8 %60 to i32
  %62 = icmp sle i32 %61, 90
  br i1 %62, label %63, label %75

63:                                               ; preds = %56
  %64 = load i32, i32* %12, align 4
  %65 = sext i32 %64 to i64
  %66 = getelementptr inbounds [40 x i8], [40 x i8]* %9, i64 0, i64 %65
  %67 = load i8, i8* %66, align 1
  %68 = sext i8 %67 to i32
  %69 = sub nsw i32 %68, 65
  %70 = add nsw i32 %69, 10
  %71 = trunc i32 %70 to i8
  %72 = load i32, i32* %12, align 4
  %73 = sext i32 %72 to i64
  %74 = getelementptr inbounds [40 x i8], [40 x i8]* %9, i64 0, i64 %73
  store i8 %71, i8* %74, align 1
  br label %86

75:                                               ; preds = %56, %49
  %76 = load i32, i32* %12, align 4
  %77 = sext i32 %76 to i64
  %78 = getelementptr inbounds [40 x i8], [40 x i8]* %9, i64 0, i64 %77
  %79 = load i8, i8* %78, align 1
  %80 = sext i8 %79 to i32
  %81 = sub nsw i32 %80, 48
  %82 = trunc i32 %81 to i8
  %83 = load i32, i32* %12, align 4
  %84 = sext i32 %83 to i64
  %85 = getelementptr inbounds [40 x i8], [40 x i8]* %9, i64 0, i64 %84
  store i8 %82, i8* %85, align 1
  br label %86

86:                                               ; preds = %75, %63
  br label %87

87:                                               ; preds = %86, %37
  %88 = load i32, i32* %12, align 4
  %89 = sext i32 %88 to i64
  %90 = getelementptr inbounds [40 x i8], [40 x i8]* %9, i64 0, i64 %89
  %91 = load i8, i8* %90, align 1
  %92 = sext i8 %91 to i32
  %93 = load i32, i32* %8, align 4
  %94 = load i32, i32* %2, align 4
  %95 = mul nsw i32 %93, %94
  %96 = add nsw i32 %92, %95
  store i32 %96, i32* %8, align 4
  br label %97

97:                                               ; preds = %87
  %98 = load i32, i32* %12, align 4
  %99 = add nsw i32 %98, 1
  store i32 %99, i32* %12, align 4
  br label %19

100:                                              ; preds = %19
  %101 = load i32, i32* %8, align 4
  %102 = icmp eq i32 %101, 0
  br i1 %102, label %103, label %105

103:                                              ; preds = %100
  %104 = call i32 (i8*, ...) @printf(i8* getelementptr inbounds ([2 x i8], [2 x i8]* @.str.1, i64 0, i64 0))
  br label %187

105:                                              ; preds = %100
  store i32 0, i32* %5, align 4
  br label %106

106:                                              ; preds = %120, %105
  %107 = load i32, i32* %8, align 4
  %108 = icmp ne i32 %107, 0
  br i1 %108, label %109, label %123

109:                                              ; preds = %106
  %110 = load i32, i32* %8, align 4
  %111 = load i32, i32* %3, align 4
  %112 = srem i32 %110, %111
  %113 = trunc i32 %112 to i8
  %114 = load i32, i32* %5, align 4
  %115 = sext i32 %114 to i64
  %116 = getelementptr inbounds [40 x i8], [40 x i8]* %10, i64 0, i64 %115
  store i8 %113, i8* %116, align 1
  %117 = load i32, i32* %8, align 4
  %118 = load i32, i32* %3, align 4
  %119 = sdiv i32 %117, %118
  store i32 %119, i32* %8, align 4
  br label %120

120:                                              ; preds = %109
  %121 = load i32, i32* %5, align 4
  %122 = add nsw i32 %121, 1
  store i32 %122, i32* %5, align 4
  br label %106

123:                                              ; preds = %106
  store i32 0, i32* %7, align 4
  br label %124

124:                                              ; preds = %139, %123
  %125 = load i32, i32* %7, align 4
  %126 = load i32, i32* %5, align 4
  %127 = icmp slt i32 %125, %126
  br i1 %127, label %128, label %142

128:                                              ; preds = %124
  %129 = load i32, i32* %5, align 4
  %130 = sub nsw i32 %129, 1
  %131 = load i32, i32* %7, align 4
  %132 = sub nsw i32 %130, %131
  %133 = sext i32 %132 to i64
  %134 = getelementptr inbounds [40 x i8], [40 x i8]* %10, i64 0, i64 %133
  %135 = load i8, i8* %134, align 1
  %136 = load i32, i32* %7, align 4
  %137 = sext i32 %136 to i64
  %138 = getelementptr inbounds [40 x i8], [40 x i8]* %11, i64 0, i64 %137
  store i8 %135, i8* %138, align 1
  br label %139

139:                                              ; preds = %128
  %140 = load i32, i32* %7, align 4
  %141 = add nsw i32 %140, 1
  store i32 %141, i32* %7, align 4
  br label %124

142:                                              ; preds = %124
  store i32 0, i32* %13, align 4
  br label %143

143:                                              ; preds = %178, %142
  %144 = load i32, i32* %13, align 4
  %145 = load i32, i32* %5, align 4
  %146 = icmp slt i32 %144, %145
  br i1 %146, label %147, label %181

147:                                              ; preds = %143
  %148 = load i32, i32* %13, align 4
  %149 = sext i32 %148 to i64
  %150 = getelementptr inbounds [40 x i8], [40 x i8]* %11, i64 0, i64 %149
  %151 = load i8, i8* %150, align 1
  %152 = sext i8 %151 to i32
  %153 = icmp sgt i32 %152, 9
  br i1 %153, label %154, label %166

154:                                              ; preds = %147
  %155 = load i32, i32* %13, align 4
  %156 = sext i32 %155 to i64
  %157 = getelementptr inbounds [40 x i8], [40 x i8]* %11, i64 0, i64 %156
  %158 = load i8, i8* %157, align 1
  %159 = sext i8 %158 to i32
  %160 = sub nsw i32 %159, 10
  %161 = add nsw i32 %160, 65
  %162 = trunc i32 %161 to i8
  %163 = load i32, i32* %13, align 4
  %164 = sext i32 %163 to i64
  %165 = getelementptr inbounds [40 x i8], [40 x i8]* %11, i64 0, i64 %164
  store i8 %162, i8* %165, align 1
  br label %177

166:                                              ; preds = %147
  %167 = load i32, i32* %13, align 4
  %168 = sext i32 %167 to i64
  %169 = getelementptr inbounds [40 x i8], [40 x i8]* %11, i64 0, i64 %168
  %170 = load i8, i8* %169, align 1
  %171 = sext i8 %170 to i32
  %172 = add nsw i32 %171, 48
  %173 = trunc i32 %172 to i8
  %174 = load i32, i32* %13, align 4
  %175 = sext i32 %174 to i64
  %176 = getelementptr inbounds [40 x i8], [40 x i8]* %11, i64 0, i64 %175
  store i8 %173, i8* %176, align 1
  br label %177

177:                                              ; preds = %166, %154
  br label %178

178:                                              ; preds = %177
  %179 = load i32, i32* %13, align 4
  %180 = add nsw i32 %179, 1
  store i32 %180, i32* %13, align 4
  br label %143

181:                                              ; preds = %143
  %182 = load i32, i32* %5, align 4
  %183 = sext i32 %182 to i64
  %184 = getelementptr inbounds [40 x i8], [40 x i8]* %11, i64 0, i64 %183
  store i8 0, i8* %184, align 1
  %185 = getelementptr inbounds [40 x i8], [40 x i8]* %11, i64 0, i64 0
  %186 = call i32 (i8*, ...) @printf(i8* getelementptr inbounds ([3 x i8], [3 x i8]* @.str.2, i64 0, i64 0), i8* %185)
  br label %187

187:                                              ; preds = %181, %103
  %188 = call i32 @getchar()
  %189 = call i32 @getchar()
  %190 = load i32, i32* %1, align 4
  ret i32 %190
}

declare dso_local i32 @__isoc99_scanf(i8*, ...) #1

; Function Attrs: nounwind readonly
declare dso_local i64 @strlen(i8*) #2

declare dso_local i32 @printf(i8*, ...) #1

declare dso_local i32 @getchar() #1


!llvm.module.flags = !{!0}
!llvm.ident = !{!1}

!0 = !{i32 1, !"wchar_size", i32 4}
!1 = !{!"clang version 10.0.0-4ubuntu1 "}
